; Function Attrs: nounwind uwtable
define range(i32 0, 2) i32 @compute_hierarchy(ptr noundef %0, i32 noundef %1, double noundef %2, double noundef %3, ptr noundef %4, ptr noundef writeonly captures(none) %5, ptr noundef writeonly captures(none) %6, ptr noundef writeonly captures(none) %7) local_unnamed_addr #0 {
  %.not = icmp eq ptr %4, null
  %9 = sext i32 %1 to i64
  br i1 %.not, label %10, label %._crit_edge113

10:                                               ; preds = %8
  %.not.i = icmp eq i32 %1, 0
  br i1 %.not.i, label %.thread.i, label %12

.thread.i:                                        ; preds = %10
  %11 = tail call noalias ptr @calloc(i64 noundef 0, i64 noundef 8) #7
  br label %gv_calloc.exit

12:                                               ; preds = %10
  %mul.ov.i = icmp slt i32 %1, 0
  br i1 %mul.ov.i, label %13, label %16

13:                                               ; preds = %12
  %14 = load ptr, ptr @stderr, align 8, !tbaa !3
  %15 = tail call i32 (ptr, ptr, ...) @fprintf(ptr noundef %14, ptr noundef nonnull @.str, i64 noundef range(i64 -2147483648, 2147483648) %9, i64 noundef 8) #8
  tail call fastcc void @graphviz_exit() #9
  unreachable

16:                                               ; preds = %12
  %17 = tail call noalias ptr @calloc(i64 noundef range(i64 -2147483648, 2147483648) %9, i64 noundef 8) #7
  %18 = icmp eq ptr %17, null
  br i1 %18, label %19, label %gv_calloc.exit

19:                                               ; preds = %16
  %20 = load ptr, ptr @stderr, align 8, !tbaa !3
  %21 = shl nuw nsw i64 %9, 3
  %22 = tail call i32 (ptr, ptr, ...) @fprintf(ptr noundef %20, ptr noundef nonnull @.str.1, i64 noundef %21) #8
  tail call fastcc void @graphviz_exit() #9
  unreachable

gv_calloc.exit:                                   ; preds = %.thread.i, %16
  %23 = phi ptr [ %11, %.thread.i ], [ %17, %16 ]
  %24 = tail call i32 @compute_y_coords(ptr noundef %0, i32 noundef %1, ptr noundef %23, i32 noundef %1) #10
  %.not76 = icmp eq i32 %24, 0
  br i1 %.not76, label %._crit_edge113, label %.thread

._crit_edge113:                                   ; preds = %8, %gv_calloc.exit
  %.067 = phi ptr [ %23, %gv_calloc.exit ], [ %4, %8 ]
  %.not.i77 = icmp eq i32 %1, 0
  br i1 %.not.i77, label %gv_calloc.exit81, label %25

25:                                               ; preds = %._crit_edge113
  %mul.ov.i79 = icmp slt i32 %1, 0
  br i1 %mul.ov.i79, label %26, label %29

26:                                               ; preds = %25
  %27 = load ptr, ptr @stderr, align 8, !tbaa !3
  %28 = tail call i32 (ptr, ptr, ...) @fprintf(ptr noundef %27, ptr noundef nonnull @.str, i64 noundef range(i64 -2147483648, 2147483648) %9, i64 noundef 4) #8
  tail call fastcc void @graphviz_exit() #9
  unreachable

29:                                               ; preds = %25
  %30 = tail call noalias ptr @calloc(i64 noundef range(i64 -2147483648, 2147483648) %9, i64 noundef 4) #7
  %31 = icmp eq ptr %30, null
  br i1 %31, label %32, label %.lr.ph.preheader

32:                                               ; preds = %29
  %33 = load ptr, ptr @stderr, align 8, !tbaa !3
  %34 = shl nuw nsw i64 %9, 2
  %35 = tail call i32 (ptr, ptr, ...) @fprintf(ptr noundef %33, ptr noundef nonnull @.str.1, i64 noundef %34) #8
  tail call fastcc void @graphviz_exit() #9
  unreachable

gv_calloc.exit81:                                 ; preds = %._crit_edge113
  %36 = tail call noalias ptr @calloc(i64 noundef 0, i64 noundef 4) #7
  store ptr %36, ptr %5, align 8, !tbaa !8
  br label %._crit_edge

.lr.ph.preheader:                                 ; preds = %29
  store ptr %30, ptr %5, align 8, !tbaa !8
  %wide.trip.count = zext nneg i32 %1 to i64
  br label %.lr.ph

.lr.ph:                                           ; preds = %.lr.ph.preheader, %.lr.ph
  %indvars.iv = phi i64 [ 0, %.lr.ph.preheader ], [ %indvars.iv.next, %.lr.ph ]
  %37 = getelementptr inbounds nuw i32, ptr %30, i64 %indvars.iv
  %38 = trunc nuw nsw i64 %indvars.iv to i32
  store i32 %38, ptr %37, align 4, !tbaa !10
  %indvars.iv.next = add nuw nsw i64 %indvars.iv, 1
  %exitcond.not = icmp eq i64 %indvars.iv.next, %wide.trip.count
  br i1 %exitcond.not, label %._crit_edge, label %.lr.ph, !llvm.loop !12

._crit_edge:                                      ; preds = %.lr.ph, %gv_calloc.exit81
  %39 = phi ptr [ %36, %gv_calloc.exit81 ], [ %30, %.lr.ph ]
  tail call void @quicksort_place(ptr noundef %.067, ptr noundef %39, i32 noundef %1) #10
  %40 = add nsw i32 %1, -1
  %41 = sext i32 %40 to i64
  %42 = getelementptr inbounds i32, ptr %39, i64 %41
  %43 = load i32, ptr %42, align 4, !tbaa !10
  %44 = sext i32 %43 to i64
  %45 = getelementptr inbounds double, ptr %.067, i64 %44
  %46 = load double, ptr %45, align 8, !tbaa !14
  %47 = load i32, ptr %39, align 4, !tbaa !10
  %48 = sext i32 %47 to i64
  %49 = getelementptr inbounds double, ptr %.067, i64 %48
  %50 = load double, ptr %49, align 8, !tbaa !14
  %51 = fsub double %46, %50
  %52 = fmul double %3, %51
  %53 = sitofp i32 %40 to double
  %54 = fdiv double %52, %53
  %55 = fcmp ogt double %2, %54
  %. = select i1 %55, double %2, double %54
  %56 = icmp sgt i32 %1, 1
  br i1 %56, label %.lr.ph97.preheader, label %._crit_edge98.thread

._crit_edge98.thread:                             ; preds = %._crit_edge
  store i32 0, ptr %7, align 4, !tbaa !10
  br label %71

.lr.ph97.preheader:                               ; preds = %._crit_edge
  %wide.trip.count106 = zext nneg i32 %1 to i64
  br label %.lr.ph97

.lr.ph97:                                         ; preds = %.lr.ph97.preheader, %.lr.ph97
  %indvars.iv103 = phi i64 [ 1, %.lr.ph97.preheader ], [ %indvars.iv.next104, %.lr.ph97 ]
  %.06595 = phi i32 [ 0, %.lr.ph97.preheader ], [ %.166, %.lr.ph97 ]
  %57 = getelementptr inbounds nuw i32, ptr %39, i64 %indvars.iv103
  %58 = load i32, ptr %57, align 4, !tbaa !10
  %59 = sext i32 %58 to i64
  %60 = getelementptr inbounds double, ptr %.067, i64 %59
  %61 = load double, ptr %60, align 8, !tbaa !14
  %62 = getelementptr i8, ptr %57, i64 -4
  %63 = load i32, ptr %62, align 4, !tbaa !10
  %64 = sext i32 %63 to i64
  %65 = getelementptr inbounds double, ptr %.067, i64 %64
  %66 = load double, ptr %65, align 8, !tbaa !14
  %67 = fsub double %61, %66
  %68 = fcmp ogt double %67, %.
  %69 = zext i1 %68 to i32
  %.166 = add nuw nsw i32 %.06595, %69
  %indvars.iv.next104 = add nuw nsw i64 %indvars.iv103, 1
  %exitcond107.not = icmp eq i64 %indvars.iv.next104, %wide.trip.count106
  br i1 %exitcond107.not, label %._crit_edge98, label %.lr.ph97, !llvm.loop !16

._crit_edge98:                                    ; preds = %.lr.ph97
  store i32 %.166, ptr %7, align 4, !tbaa !10
  %70 = icmp eq i32 %.166, 0
  br i1 %70, label %71, label %77

71:                                               ; preds = %._crit_edge98.thread, %._crit_edge98
  %72 = tail call noalias dereferenceable_or_null(4) ptr @calloc(i64 noundef 1, i64 noundef 4) #7
  %73 = icmp eq ptr %72, null
  br i1 %73, label %74, label %gv_calloc.exit82

74:                                               ; preds = %71
  %75 = load ptr, ptr @stderr, align 8, !tbaa !3
  %76 = tail call i32 (ptr, ptr, ...) @fprintf(ptr noundef %75, ptr noundef nonnull @.str.1, i64 noundef 4) #8
  tail call fastcc void @graphviz_exit() #9
  unreachable

gv_calloc.exit82:                                 ; preds = %71
  store ptr %72, ptr %6, align 8, !tbaa !8
  store i32 %1, ptr %72, align 4, !tbaa !10
  br label %.loopexit

77:                                               ; preds = %._crit_edge98
  %78 = zext nneg i32 %.166 to i64
  %79 = tail call noalias ptr @calloc(i64 noundef range(i64 -2147483648, 2147483648) %78, i64 noundef 4) #7
  %80 = icmp eq ptr %79, null
  br i1 %80, label %81, label %gv_calloc.exit87

81:                                               ; preds = %77
  %82 = load ptr, ptr @stderr, align 8, !tbaa !3
  %83 = shl nuw nsw i64 %78, 2
  %84 = tail call i32 (ptr, ptr, ...) @fprintf(ptr noundef %82, ptr noundef nonnull @.str.1, i64 noundef %83) #8
  tail call fastcc void @graphviz_exit() #9
  unreachable

gv_calloc.exit87:                                 ; preds = %77
  store ptr %79, ptr %6, align 8, !tbaa !8
  %wide.trip.count111 = zext nneg i32 %1 to i64
  br label %.lr.ph101

.lr.ph101:                                        ; preds = %gv_calloc.exit87, %102
  %indvars.iv108 = phi i64 [ 1, %gv_calloc.exit87 ], [ %indvars.iv.next109, %102 ]
  %.0100 = phi i32 [ 0, %gv_calloc.exit87 ], [ %.1, %102 ]
  %85 = getelementptr inbounds nuw i32, ptr %39, i64 %indvars.iv108
  %86 = load i32, ptr %85, align 4, !tbaa !10
  %87 = sext i32 %86 to i64
  %88 = getelementptr inbounds double, ptr %.067, i64 %87
  %89 = load double, ptr %88, align 8, !tbaa !14
  %90 = getelementptr i8, ptr %85, i64 -4
  %91 = load i32, ptr %90, align 4, !tbaa !10
  %92 = sext i32 %91 to i64
  %93 = getelementptr inbounds double, ptr %.067, i64 %92
  %94 = load double, ptr %93, align 8, !tbaa !14
  %95 = fsub double %89, %94
  %96 = fcmp ogt double %95, %.
  br i1 %96, label %97, label %102

97:                                               ; preds = %.lr.ph101
  %98 = add nsw i32 %.0100, 1
  %99 = sext i32 %.0100 to i64
  %100 = getelementptr inbounds i32, ptr %79, i64 %99
  %101 = trunc nuw nsw i64 %indvars.iv108 to i32
  store i32 %101, ptr %100, align 4, !tbaa !10
  br label %102

102:                                              ; preds = %.lr.ph101, %97
  %.1 = phi i32 [ %98, %97 ], [ %.0100, %.lr.ph101 ]
  %indvars.iv.next109 = add nuw nsw i64 %indvars.iv108, 1
  %exitcond112.not = icmp eq i64 %indvars.iv.next109, %wide.trip.count111
  br i1 %exitcond112.not, label %.loopexit, label %.lr.ph101, !llvm.loop !17

.loopexit:                                        ; preds = %102, %gv_calloc.exit82
  br i1 %.not, label %.thread, label %103

.thread:                                          ; preds = %gv_calloc.exit, %.loopexit
  %.16892 = phi ptr [ %.067, %.loopexit ], [ %23, %gv_calloc.exit ]
  %.07191 = phi i32 [ 0, %.loopexit ], [ 1, %gv_calloc.exit ]
  tail call void @free(ptr noundef %.16892) #10
  br label %103

103:                                              ; preds = %.thread, %.loopexit
  %.07190 = phi i32 [ %.07191, %.thread ], [ 0, %.loopexit ]
  ret i32 %.07190
}